target datalayout = "e-m:e-p270:32:32-p271:32:32-p272:64:64-i64:64-i128:128-f80:128-n8:16:32:64-S128"
target triple = "x86_64-pc-linux-gnu"

%struct.PlannerInfo = type { i32, ptr, ptr, i32, ptr, ptr, ptr, ptr, i32, ptr, ptr, ptr, ptr, ptr, ptr, ptr, ptr, i32, ptr, ptr, ptr, ptr, ptr, i8, ptr, ptr, ptr, ptr, ptr, i32, ptr, ptr, ptr, ptr, ptr, ptr, ptr, i32, ptr, ptr, ptr, i32, ptr, ptr, ptr, ptr, ptr, ptr, [8 x ptr], [8 x ptr], ptr, ptr, ptr, ptr, ptr, ptr, ptr, double, double, double, i32, i8, i8, i8, i8, i8, i8, i8, i32, ptr, ptr, i32, i8, i8, i32, ptr, ptr, ptr, ptr, ptr, ptr, i8, ptr }
%struct.RelOptInfo = type { i32, i32, ptr, double, i8, i8, i8, ptr, ptr, ptr, ptr, ptr, ptr, ptr, ptr, ptr, ptr, i32, i32, i32, i16, i16, ptr, ptr, ptr, ptr, ptr, ptr, ptr, ptr, i32, double, double, ptr, ptr, ptr, i32, i32, i32, i32, i8, ptr, ptr, ptr, ptr, ptr, %struct.QualCost, i32, ptr, i8, i8, ptr, ptr, ptr, ptr, i32, ptr, i8, ptr, ptr, ptr, ptr, ptr, ptr }
%struct.QualCost = type { double, double }
%struct.ForEachState = type { ptr, i32 }
%struct.List = type { i32, i32, i32, ptr, [0 x %union.ListCell] }
%union.ListCell = type { ptr }
%struct.SpecialJoinInfo = type { i32, ptr, ptr, ptr, ptr, i32, i32, ptr, ptr, ptr, ptr, i8, i8, i8, ptr, ptr }
%struct.PlannerGlobal = type { i32, ptr, ptr, ptr, ptr, ptr, ptr, ptr, ptr, ptr, ptr, ptr, ptr, ptr, ptr, ptr, ptr, i32, i32, i32, i8, i8, i8, i8, i8, ptr }

; Function Attrs: nounwind uwtable
define internal void @set_base_rel_pathlists(ptr noundef %0) #0 {
  %2 = alloca ptr, align 8
  %3 = alloca i32, align 4
  %4 = alloca ptr, align 8
  %5 = alloca i32, align 4
  store ptr %0, ptr %2, align 8
  call void @llvm.lifetime.start.p0(i64 4, ptr %3) #8
  store i32 1, ptr %3, align 4
  br label %6

6:                                                ; preds = %43, %1
  %7 = load i32, ptr %3, align 4
  %8 = load ptr, ptr %2, align 8
  %9 = getelementptr inbounds nuw %struct.PlannerInfo, ptr %8, i32 0, i32 8
  %10 = load i32, ptr %9, align 8
  %11 = icmp ult i32 %7, %10
  br i1 %11, label %12, label %46

12:                                               ; preds = %6
  call void @llvm.lifetime.start.p0(i64 8, ptr %4) #8
  %13 = load ptr, ptr %2, align 8
  %14 = getelementptr inbounds nuw %struct.PlannerInfo, ptr %13, i32 0, i32 7
  %15 = load ptr, ptr %14, align 8
  %16 = load i32, ptr %3, align 4
  %17 = zext i32 %16 to i64
  %18 = getelementptr inbounds nuw ptr, ptr %15, i64 %17
  %19 = load ptr, ptr %18, align 8
  store ptr %19, ptr %4, align 8
  %20 = load ptr, ptr %4, align 8
  %21 = icmp eq ptr %20, null
  br i1 %21, label %22, label %23

22:                                               ; preds = %12
  store i32 4, ptr %5, align 4
  br label %40

23:                                               ; preds = %12
  %24 = load ptr, ptr %4, align 8
  %25 = getelementptr inbounds nuw %struct.RelOptInfo, ptr %24, i32 0, i32 1
  %26 = load i32, ptr %25, align 4
  %27 = icmp ne i32 %26, 0
  br i1 %27, label %28, label %29

28:                                               ; preds = %23
  store i32 4, ptr %5, align 4
  br label %40

29:                                               ; preds = %23
  %30 = load ptr, ptr %2, align 8
  %31 = load ptr, ptr %4, align 8
  %32 = load i32, ptr %3, align 4
  %33 = load ptr, ptr %2, align 8
  %34 = getelementptr inbounds nuw %struct.PlannerInfo, ptr %33, i32 0, i32 9
  %35 = load ptr, ptr %34, align 8
  %36 = load i32, ptr %3, align 4
  %37 = zext i32 %36 to i64
  %38 = getelementptr inbounds nuw ptr, ptr %35, i64 %37
  %39 = load ptr, ptr %38, align 8
  call void @set_rel_pathlist(ptr noundef %30, ptr noundef %31, i32 noundef %32, ptr noundef %39)
  store i32 0, ptr %5, align 4
  br label %40

40:                                               ; preds = %29, %28, %22
  call void @llvm.lifetime.end.p0(i64 8, ptr %4) #8
  %41 = load i32, ptr %5, align 4
  switch i32 %41, label %47 [
    i32 0, label %42
    i32 4, label %43
  ]

42:                                               ; preds = %40
  br label %43

43:                                               ; preds = %42, %40
  %44 = load i32, ptr %3, align 4
  %45 = add i32 %44, 1
  store i32 %45, ptr %3, align 4
  br label %6, !llvm.loop !10

46:                                               ; preds = %6
  call void @llvm.lifetime.end.p0(i64 4, ptr %3) #8
  ret void

47:                                               ; preds = %40
  unreachable
}

; Function Attrs: nounwind uwtable
define internal void @set_base_rel_sizes(ptr noundef %0) #0 {
  %2 = alloca ptr, align 8
  %3 = alloca i32, align 4
  %4 = alloca ptr, align 8
  %5 = alloca ptr, align 8
  %6 = alloca i32, align 4
  store ptr %0, ptr %2, align 8
  call void @llvm.lifetime.start.p0(i64 4, ptr %3) #8
  store i32 1, ptr %3, align 4
  br label %7

7:                                                ; preds = %56, %1
  %8 = load i32, ptr %3, align 4
  %9 = load ptr, ptr %2, align 8
  %10 = getelementptr inbounds nuw %struct.PlannerInfo, ptr %9, i32 0, i32 8
  %11 = load i32, ptr %10, align 8
  %12 = icmp ult i32 %8, %11
  br i1 %12, label %13, label %59

13:                                               ; preds = %7
  call void @llvm.lifetime.start.p0(i64 8, ptr %4) #8
  %14 = load ptr, ptr %2, align 8
  %15 = getelementptr inbounds nuw %struct.PlannerInfo, ptr %14, i32 0, i32 7
  %16 = load ptr, ptr %15, align 8
  %17 = load i32, ptr %3, align 4
  %18 = zext i32 %17 to i64
  %19 = getelementptr inbounds nuw ptr, ptr %16, i64 %18
  %20 = load ptr, ptr %19, align 8
  store ptr %20, ptr %4, align 8
  call void @llvm.lifetime.start.p0(i64 8, ptr %5) #8
  %21 = load ptr, ptr %4, align 8
  %22 = icmp eq ptr %21, null
  br i1 %22, label %23, label %24

23:                                               ; preds = %13
  store i32 4, ptr %6, align 4
  br label %53

24:                                               ; preds = %13
  %25 = load ptr, ptr %4, align 8
  %26 = getelementptr inbounds nuw %struct.RelOptInfo, ptr %25, i32 0, i32 1
  %27 = load i32, ptr %26, align 4
  %28 = icmp ne i32 %27, 0
  br i1 %28, label %29, label %30

29:                                               ; preds = %24
  store i32 4, ptr %6, align 4
  br label %53

30:                                               ; preds = %24
  %31 = load ptr, ptr %2, align 8
  %32 = getelementptr inbounds nuw %struct.PlannerInfo, ptr %31, i32 0, i32 9
  %33 = load ptr, ptr %32, align 8
  %34 = load i32, ptr %3, align 4
  %35 = zext i32 %34 to i64
  %36 = getelementptr inbounds nuw ptr, ptr %33, i64 %35
  %37 = load ptr, ptr %36, align 8
  store ptr %37, ptr %5, align 8
  %38 = load ptr, ptr %2, align 8
  %39 = getelementptr inbounds nuw %struct.PlannerInfo, ptr %38, i32 0, i32 2
  %40 = load ptr, ptr %39, align 8
  %41 = getelementptr inbounds nuw %struct.PlannerGlobal, ptr %40, i32 0, i32 22
  %42 = load i8, ptr %41, align 2, !range !7, !noundef !8
  %43 = trunc i8 %42 to i1
  br i1 %43, label %44, label %48

44:                                               ; preds = %30
  %45 = load ptr, ptr %2, align 8
  %46 = load ptr, ptr %4, align 8
  %47 = load ptr, ptr %5, align 8
  call void @set_rel_consider_parallel(ptr noundef %45, ptr noundef %46, ptr noundef %47)
  br label %48

48:                                               ; preds = %44, %30
  %49 = load ptr, ptr %2, align 8
  %50 = load ptr, ptr %4, align 8
  %51 = load i32, ptr %3, align 4
  %52 = load ptr, ptr %5, align 8
  call void @set_rel_size(ptr noundef %49, ptr noundef %50, i32 noundef %51, ptr noundef %52)
  store i32 0, ptr %6, align 4
  br label %53

53:                                               ; preds = %48, %29, %23
  call void @llvm.lifetime.end.p0(i64 8, ptr %5) #8
  call void @llvm.lifetime.end.p0(i64 8, ptr %4) #8
  %54 = load i32, ptr %6, align 4
  switch i32 %54, label %60 [
    i32 0, label %55
    i32 4, label %56
  ]

55:                                               ; preds = %53
  br label %56

56:                                               ; preds = %55, %53
  %57 = load i32, ptr %3, align 4
  %58 = add i32 %57, 1
  store i32 %58, ptr %3, align 4
  br label %7, !llvm.loop !9

59:                                               ; preds = %7
  call void @llvm.lifetime.end.p0(i64 4, ptr %3) #8
  ret void

60:                                               ; preds = %53
  unreachable
}

; Function Attrs: nounwind uwtable
define internal void @set_base_rel_consider_startup(ptr noundef %0) #0 {
  %2 = alloca ptr, align 8
  %3 = alloca ptr, align 8
  %4 = alloca %struct.ForEachState, align 8
  %5 = alloca ptr, align 8
  %6 = alloca i32, align 4
  %7 = alloca ptr, align 8
  store ptr %0, ptr %2, align 8
  call void @llvm.lifetime.start.p0(i64 8, ptr %3) #8
  call void @llvm.lifetime.start.p0(i64 16, ptr %4) #8
  %8 = getelementptr inbounds nuw %struct.ForEachState, ptr %4, i32 0, i32 0
  %9 = load ptr, ptr %2, align 8
  %10 = getelementptr inbounds nuw %struct.PlannerInfo, ptr %9, i32 0, i32 28
  %11 = load ptr, ptr %10, align 8
  store ptr %11, ptr %8, align 8
  %12 = getelementptr inbounds nuw %struct.ForEachState, ptr %4, i32 0, i32 1
  store i32 0, ptr %12, align 8
  %13 = getelementptr i8, ptr %4, i64 12
  call void @llvm.memset.p0.i64(ptr align 4 %13, i8 0, i64 4, i1 false)
  br label %14

14:                                               ; preds = %64, %1
  %15 = getelementptr inbounds nuw %struct.ForEachState, ptr %4, i32 0, i32 0
  %16 = load ptr, ptr %15, align 8
  %17 = icmp ne ptr %16, null
  br i1 %17, label %18, label %35

18:                                               ; preds = %14
  %19 = getelementptr inbounds nuw %struct.ForEachState, ptr %4, i32 0, i32 1
  %20 = load i32, ptr %19, align 8
  %21 = getelementptr inbounds nuw %struct.ForEachState, ptr %4, i32 0, i32 0
  %22 = load ptr, ptr %21, align 8
  %23 = getelementptr inbounds nuw %struct.List, ptr %22, i32 0, i32 1
  %24 = load i32, ptr %23, align 4
  %25 = icmp slt i32 %20, %24
  br i1 %25, label %26, label %35

26:                                               ; preds = %18
  %27 = getelementptr inbounds nuw %struct.ForEachState, ptr %4, i32 0, i32 0
  %28 = load ptr, ptr %27, align 8
  %29 = getelementptr inbounds nuw %struct.List, ptr %28, i32 0, i32 3
  %30 = load ptr, ptr %29, align 8
  %31 = getelementptr inbounds nuw %struct.ForEachState, ptr %4, i32 0, i32 1
  %32 = load i32, ptr %31, align 8
  %33 = sext i32 %32 to i64
  %34 = getelementptr inbounds %union.ListCell, ptr %30, i64 %33
  store ptr %34, ptr %3, align 8
  br label %36

35:                                               ; preds = %18, %14
  store ptr null, ptr %3, align 8
  br label %36

36:                                               ; preds = %35, %26
  %37 = phi i32 [ 1, %26 ], [ 0, %35 ]
  %38 = icmp ne i32 %37, 0
  br i1 %38, label %40, label %39

39:                                               ; preds = %36
  call void @llvm.lifetime.end.p0(i64 16, ptr %4) #8
  br label %68

40:                                               ; preds = %36
  call void @llvm.lifetime.start.p0(i64 8, ptr %5) #8
  %41 = load ptr, ptr %3, align 8
  %42 = load ptr, ptr %41, align 8
  store ptr %42, ptr %5, align 8
  call void @llvm.lifetime.start.p0(i64 4, ptr %6) #8
  %43 = load ptr, ptr %5, align 8
  %44 = getelementptr inbounds nuw %struct.SpecialJoinInfo, ptr %43, i32 0, i32 5
  %45 = load i32, ptr %44, align 8
  %46 = icmp eq i32 %45, 4
  br i1 %46, label %52, label %47

47:                                               ; preds = %40
  %48 = load ptr, ptr %5, align 8
  %49 = getelementptr inbounds nuw %struct.SpecialJoinInfo, ptr %48, i32 0, i32 5
  %50 = load i32, ptr %49, align 8
  %51 = icmp eq i32 %50, 5
  br i1 %51, label %52, label %63

52:                                               ; preds = %47, %40
  %53 = load ptr, ptr %5, align 8
  %54 = getelementptr inbounds nuw %struct.SpecialJoinInfo, ptr %53, i32 0, i32 4
  %55 = load ptr, ptr %54, align 8
  %56 = call zeroext i1 @bms_get_singleton_member(ptr noundef %55, ptr noundef %6)
  br i1 %56, label %57, label %63

57:                                               ; preds = %52
  call void @llvm.lifetime.start.p0(i64 8, ptr %7) #8
  %58 = load ptr, ptr %2, align 8
  %59 = load i32, ptr %6, align 4
  %60 = call ptr @find_base_rel(ptr noundef %58, i32 noundef %59)
  store ptr %60, ptr %7, align 8
  %61 = load ptr, ptr %7, align 8
  %62 = getelementptr inbounds nuw %struct.RelOptInfo, ptr %61, i32 0, i32 5
  store i8 1, ptr %62, align 1
  call void @llvm.lifetime.end.p0(i64 8, ptr %7) #8
  br label %63

63:                                               ; preds = %57, %52, %47
  call void @llvm.lifetime.end.p0(i64 4, ptr %6) #8
  call void @llvm.lifetime.end.p0(i64 8, ptr %5) #8
  br label %64

64:                                               ; preds = %63
  %65 = getelementptr inbounds nuw %struct.ForEachState, ptr %4, i32 0, i32 1
  %66 = load i32, ptr %65, align 8
  %67 = add i32 %66, 1
  store i32 %67, ptr %65, align 8
  br label %14, !llvm.loop !6

68:                                               ; preds = %39
  call void @llvm.lifetime.end.p0(i64 8, ptr %3) #8
  ret void
}

; Function Attrs: nounwind uwtable
define dso_local ptr @make_one_rel(ptr noundef %0, ptr noundef %1) #0 {
  %3 = alloca ptr, align 8
  %4 = alloca ptr, align 8
  %5 = alloca ptr, align 8
  %6 = alloca i32, align 4
  %7 = alloca double, align 8
  %8 = alloca ptr, align 8
  %9 = alloca i32, align 4
  store ptr %0, ptr %3, align 8
  store ptr %1, ptr %4, align 8
  call void @llvm.lifetime.start.p0(i64 8, ptr %5) #8
  call void @llvm.lifetime.start.p0(i64 4, ptr %6) #8
  call void @llvm.lifetime.start.p0(i64 8, ptr %7) #8
  %10 = load ptr, ptr %3, align 8
  call void @set_base_rel_consider_startup(ptr noundef %10)
  %11 = load ptr, ptr %3, align 8
  call void @set_base_rel_sizes(ptr noundef %11)
  store double 0.000000e+00, ptr %7, align 8
  store i32 1, ptr %6, align 4
  br label %12

12:                                               ; preds = %54, %2
  %13 = load i32, ptr %6, align 4
  %14 = load ptr, ptr %3, align 8
  %15 = getelementptr inbounds nuw %struct.PlannerInfo, ptr %14, i32 0, i32 8
  %16 = load i32, ptr %15, align 8
  %17 = icmp ult i32 %13, %16
  br i1 %17, label %18, label %57

18:                                               ; preds = %12
  call void @llvm.lifetime.start.p0(i64 8, ptr %8) #8
  %19 = load ptr, ptr %3, align 8
  %20 = getelementptr inbounds nuw %struct.PlannerInfo, ptr %19, i32 0, i32 7
  %21 = load ptr, ptr %20, align 8
  %22 = load i32, ptr %6, align 4
  %23 = zext i32 %22 to i64
  %24 = getelementptr inbounds nuw ptr, ptr %21, i64 %23
  %25 = load ptr, ptr %24, align 8
  store ptr %25, ptr %8, align 8
  %26 = load ptr, ptr %8, align 8
  %27 = icmp eq ptr %26, null
  br i1 %27, label %28, label %29

28:                                               ; preds = %18
  store i32 4, ptr %9, align 4
  br label %51

29:                                               ; preds = %18
  %30 = load ptr, ptr %8, align 8
  %31 = call zeroext i1 @is_dummy_rel(ptr noundef %30)
  br i1 %31, label %32, label %33

32:                                               ; preds = %29
  store i32 4, ptr %9, align 4
  br label %51

33:                                               ; preds = %29
  %34 = load ptr, ptr %8, align 8
  %35 = getelementptr inbounds nuw %struct.RelOptInfo, ptr %34, i32 0, i32 1
  %36 = load i32, ptr %35, align 4
  %37 = icmp eq i32 %36, 0
  br i1 %37, label %43, label %38

38:                                               ; preds = %33
  %39 = load ptr, ptr %8, align 8
  %40 = getelementptr inbounds nuw %struct.RelOptInfo, ptr %39, i32 0, i32 1
  %41 = load i32, ptr %40, align 4
  %42 = icmp eq i32 %41, 2
  br i1 %42, label %43, label %50

43:                                               ; preds = %38, %33
  %44 = load ptr, ptr %8, align 8
  %45 = getelementptr inbounds nuw %struct.RelOptInfo, ptr %44, i32 0, i32 30
  %46 = load i32, ptr %45, align 8
  %47 = uitofp i32 %46 to double
  %48 = load double, ptr %7, align 8
  %49 = fadd double %48, %47
  store double %49, ptr %7, align 8
  br label %50

50:                                               ; preds = %43, %38
  store i32 0, ptr %9, align 4
  br label %51

51:                                               ; preds = %50, %32, %28
  call void @llvm.lifetime.end.p0(i64 8, ptr %8) #8
  %52 = load i32, ptr %9, align 4
  switch i32 %52, label %66 [
    i32 0, label %53
    i32 4, label %54
  ]

53:                                               ; preds = %51
  br label %54

54:                                               ; preds = %53, %51
  %55 = load i32, ptr %6, align 4
  %56 = add i32 %55, 1
  store i32 %56, ptr %6, align 4
  br label %12, !llvm.loop !4

57:                                               ; preds = %12
  %58 = load double, ptr %7, align 8
  %59 = load ptr, ptr %3, align 8
  %60 = getelementptr inbounds nuw %struct.PlannerInfo, ptr %59, i32 0, i32 57
  store double %58, ptr %60, align 8
  %61 = load ptr, ptr %3, align 8
  call void @set_base_rel_pathlists(ptr noundef %61)
  %62 = load ptr, ptr %3, align 8
  %63 = load ptr, ptr %4, align 8
  %64 = call ptr @make_rel_from_joinlist(ptr noundef %62, ptr noundef %63)
  store ptr %64, ptr %5, align 8
  %65 = load ptr, ptr %5, align 8
  store i32 1, ptr %9, align 4
  call void @llvm.lifetime.end.p0(i64 8, ptr %7) #8
  call void @llvm.lifetime.end.p0(i64 4, ptr %6) #8
  call void @llvm.lifetime.end.p0(i64 8, ptr %5) #8
  ret ptr %65

66:                                               ; preds = %51
  unreachable
}