; Function Attrs: nounwind uwtable
define dso_local ptr @make_one_rel(ptr noundef %0, ptr noundef captures(address_is_null) %1) local_unnamed_addr #0 {
  %3 = alloca i32, align 4
  %4 = getelementptr inbounds nuw i8, ptr %0, i64 224
  %5 = load ptr, ptr %4, align 8
  %6 = getelementptr inbounds nuw i8, ptr %5, i64 4
  %.not.i = icmp eq ptr %5, null
  br i1 %.not.i, label %set_base_rel_consider_startup.exit, label %.lr.ph.i

.lr.ph.i:                                         ; preds = %2
  %7 = getelementptr inbounds nuw i8, ptr %5, i64 16
  %8 = load i32, ptr %6, align 4
  %9 = icmp sgt i32 %8, 0
  br i1 %9, label %.lr.ph19.i, label %set_base_rel_consider_startup.exit

.lr.ph19.i:                                       ; preds = %.lr.ph.i, %24
  %indvars.iv.i = phi i64 [ %indvars.iv.next.i, %24 ], [ 0, %.lr.ph.i ]
  %10 = load ptr, ptr %7, align 8
  %11 = getelementptr inbounds nuw %union.ListCell, ptr %10, i64 %indvars.iv.i
  %12 = load ptr, ptr %11, align 8
  call void @llvm.lifetime.start.p0(i64 4, ptr nonnull %3) #9
  %13 = getelementptr inbounds nuw i8, ptr %12, i64 40
  %14 = load i32, ptr %13, align 8
  %15 = and i32 %14, -2
  %switch.i = icmp eq i32 %15, 4
  br i1 %switch.i, label %16, label %24

16:                                               ; preds = %.lr.ph19.i
  %17 = getelementptr inbounds nuw i8, ptr %12, i64 32
  %18 = load ptr, ptr %17, align 8
  %19 = call zeroext i1 @bms_get_singleton_member(ptr noundef %18, ptr noundef nonnull %3) #9
  br i1 %19, label %20, label %24

20:                                               ; preds = %16
  %21 = load i32, ptr %3, align 4
  %22 = call ptr @find_base_rel(ptr noundef %0, i32 noundef %21) #9
  %23 = getelementptr inbounds nuw i8, ptr %22, i64 25
  store i8 1, ptr %23, align 1
  br label %24

24:                                               ; preds = %20, %16, %.lr.ph19.i
  call void @llvm.lifetime.end.p0(i64 4, ptr nonnull %3) #9
  %indvars.iv.next.i = add nuw nsw i64 %indvars.iv.i, 1
  %25 = load i32, ptr %6, align 4
  %26 = sext i32 %25 to i64
  %27 = icmp slt i64 %indvars.iv.next.i, %26
  br i1 %27, label %.lr.ph19.i, label %set_base_rel_consider_startup.exit

set_base_rel_consider_startup.exit:               ; preds = %24, %2, %.lr.ph.i
  %28 = getelementptr inbounds nuw i8, ptr %0, i64 64
  %29 = load i32, ptr %28, align 8
  %30 = icmp ugt i32 %29, 1
  br i1 %30, label %.lr.ph.i21, label %._crit_edge.thread

.lr.ph.i21:                                       ; preds = %set_base_rel_consider_startup.exit
  %31 = getelementptr inbounds nuw i8, ptr %0, i64 56
  %32 = getelementptr inbounds nuw i8, ptr %0, i64 72
  %33 = getelementptr inbounds nuw i8, ptr %0, i64 16
  br label %34

34:                                               ; preds = %54, %.lr.ph.i21
  %35 = phi i32 [ %29, %.lr.ph.i21 ], [ %55, %54 ]
  %indvars.iv.i22 = phi i64 [ 1, %.lr.ph.i21 ], [ %indvars.iv.next.i24, %54 ]
  %36 = load ptr, ptr %31, align 8
  %37 = getelementptr inbounds nuw ptr, ptr %36, i64 %indvars.iv.i22
  %38 = load ptr, ptr %37, align 8
  %39 = icmp eq ptr %38, null
  br i1 %39, label %54, label %40

40:                                               ; preds = %34
  %41 = getelementptr inbounds nuw i8, ptr %38, i64 4
  %42 = load i32, ptr %41, align 4
  %.not.i23 = icmp eq i32 %42, 0
  br i1 %.not.i23, label %43, label %54

43:                                               ; preds = %40
  %44 = load ptr, ptr %32, align 8
  %45 = getelementptr inbounds nuw ptr, ptr %44, i64 %indvars.iv.i22
  %46 = load ptr, ptr %45, align 8
  %47 = load ptr, ptr %33, align 8
  %48 = getelementptr inbounds nuw i8, ptr %47, i64 150
  %49 = load i8, ptr %48, align 2, !range !4, !noundef !5
  %50 = trunc nuw i8 %49 to i1
  br i1 %50, label %51, label %52

51:                                               ; preds = %43
  call fastcc void @set_rel_consider_parallel(ptr noundef nonnull %0, ptr noundef nonnull %38, ptr noundef %46)
  br label %52

52:                                               ; preds = %51, %43
  %53 = trunc nuw i64 %indvars.iv.i22 to i32
  call fastcc void @set_rel_size(ptr noundef nonnull %0, ptr noundef nonnull %38, i32 noundef %53, ptr noundef %46)
  %.pre.i = load i32, ptr %28, align 8
  br label %54

54:                                               ; preds = %52, %40, %34
  %55 = phi i32 [ %35, %40 ], [ %35, %34 ], [ %.pre.i, %52 ]
  %indvars.iv.next.i24 = add nuw nsw i64 %indvars.iv.i22, 1
  %56 = zext i32 %55 to i64
  %57 = icmp samesign ult i64 %indvars.iv.next.i24, %56
  br i1 %57, label %34, label %set_base_rel_sizes.exit, !llvm.loop !6

set_base_rel_sizes.exit:                          ; preds = %54
  %58 = icmp ugt i32 %55, 1
  br i1 %58, label %.lr.ph, label %._crit_edge.thread

.lr.ph:                                           ; preds = %set_base_rel_sizes.exit
  %59 = getelementptr inbounds nuw i8, ptr %0, i64 56
  br label %60

60:                                               ; preds = %.lr.ph, %75
  %indvars.iv = phi i64 [ 1, %.lr.ph ], [ %indvars.iv.next, %75 ]
  %.01830 = phi double [ 0.000000e+00, %.lr.ph ], [ %.1, %75 ]
  %61 = load ptr, ptr %59, align 8
  %62 = getelementptr inbounds nuw ptr, ptr %61, i64 %indvars.iv
  %63 = load ptr, ptr %62, align 8
  %64 = icmp eq ptr %63, null
  br i1 %64, label %75, label %65

65:                                               ; preds = %60
  %66 = call zeroext i1 @is_dummy_rel(ptr noundef nonnull %63) #9
  br i1 %66, label %75, label %67

67:                                               ; preds = %65
  %68 = getelementptr inbounds nuw i8, ptr %63, i64 4
  %69 = load i32, ptr %68, align 4
  switch i32 %69, label %75 [
    i32 0, label %70
    i32 2, label %70
  ]

70:                                               ; preds = %67, %67
  %71 = getelementptr inbounds nuw i8, ptr %63, i64 192
  %72 = load i32, ptr %71, align 8
  %73 = uitofp i32 %72 to double
  %74 = fadd double %.01830, %73
  br label %75

75:                                               ; preds = %70, %67, %65, %60
  %.1 = phi double [ %.01830, %60 ], [ %.01830, %65 ], [ %74, %70 ], [ %.01830, %67 ]
  %indvars.iv.next = add nuw nsw i64 %indvars.iv, 1
  %76 = load i32, ptr %28, align 8
  %77 = zext i32 %76 to i64
  %78 = icmp samesign ult i64 %indvars.iv.next, %77
  br i1 %78, label %60, label %._crit_edge, !llvm.loop !8

._crit_edge.thread:                               ; preds = %set_base_rel_sizes.exit, %set_base_rel_consider_startup.exit
  %79 = getelementptr inbounds nuw i8, ptr %0, i64 568
  store double 0.000000e+00, ptr %79, align 8
  br label %set_base_rel_pathlists.exit

._crit_edge:                                      ; preds = %75
  %80 = getelementptr inbounds nuw i8, ptr %0, i64 568
  store double %.1, ptr %80, align 8
  %81 = icmp ugt i32 %76, 1
  br i1 %81, label %.lr.ph.i25, label %set_base_rel_pathlists.exit

.lr.ph.i25:                                       ; preds = %._crit_edge
  %82 = getelementptr inbounds nuw i8, ptr %0, i64 56
  %83 = getelementptr inbounds nuw i8, ptr %0, i64 72
  br label %84

84:                                               ; preds = %98, %.lr.ph.i25
  %85 = phi i32 [ %76, %.lr.ph.i25 ], [ %99, %98 ]
  %indvars.iv.i26 = phi i64 [ 1, %.lr.ph.i25 ], [ %indvars.iv.next.i28, %98 ]
  %86 = load ptr, ptr %82, align 8
  %87 = getelementptr inbounds nuw ptr, ptr %86, i64 %indvars.iv.i26
  %88 = load ptr, ptr %87, align 8
  %89 = icmp eq ptr %88, null
  br i1 %89, label %98, label %90

90:                                               ; preds = %84
  %91 = getelementptr inbounds nuw i8, ptr %88, i64 4
  %92 = load i32, ptr %91, align 4
  %.not.i27 = icmp eq i32 %92, 0
  br i1 %.not.i27, label %93, label %98

93:                                               ; preds = %90
  %94 = load ptr, ptr %83, align 8
  %95 = getelementptr inbounds nuw ptr, ptr %94, i64 %indvars.iv.i26
  %96 = load ptr, ptr %95, align 8
  %97 = trunc nuw i64 %indvars.iv.i26 to i32
  call fastcc void @set_rel_pathlist(ptr noundef nonnull %0, ptr noundef nonnull %88, i32 noundef %97, ptr noundef %96)
  %.pre.i29 = load i32, ptr %28, align 8
  br label %98

98:                                               ; preds = %93, %90, %84
  %99 = phi i32 [ %85, %90 ], [ %85, %84 ], [ %.pre.i29, %93 ]
  %indvars.iv.next.i28 = add nuw nsw i64 %indvars.iv.i26, 1
  %100 = zext i32 %99 to i64
  %101 = icmp samesign ult i64 %indvars.iv.next.i28, %100
  br i1 %101, label %84, label %set_base_rel_pathlists.exit, !llvm.loop !9

set_base_rel_pathlists.exit:                      ; preds = %98, %._crit_edge.thread, %._crit_edge
  %102 = call fastcc ptr @make_rel_from_joinlist(ptr noundef nonnull %0, ptr noundef %1)
  ret ptr %102
}